target datalayout = "e-m:e-p270:32:32-p271:32:32-p272:64:64-i64:64-i128:128-f80:128-n8:16:32:64-S128"
target triple = "x86_64-pc-linux-gnu"

%struct._protocol = type { ptr, ptr, ptr, ptr, i32, i8, i8, i8, i32, ptr }

@.str.110 = private unnamed_addr constant [7 x i8] c"(none)\00", align 1
@.str.111 = private unnamed_addr constant [3 x i8] c"ip\00", align 1
@.str.112 = private unnamed_addr constant [5 x i8] c"ipv6\00", align 1
@.str.113 = private unnamed_addr constant [4 x i8] c"tcp\00", align 1
@.str.114 = private unnamed_addr constant [4 x i8] c"udp\00", align 1
@.str.115 = private unnamed_addr constant [5 x i8] c"sctp\00", align 1
@.str.116 = private unnamed_addr constant [4 x i8] c"tls\00", align 1
@.str.117 = private unnamed_addr constant [4 x i8] c"rtp\00", align 1
@.str.118 = private unnamed_addr constant [8 x i8] c"rlc-lte\00", align 1
@.str.119 = private unnamed_addr constant [7 x i8] c"rlc-nr\00", align 1

; Function Attrs: null_pointer_is_valid sspstrong uwtable
define ptr @proto_get_protocol_filter_name(i32 noundef %0) #0 {
  %2 = alloca ptr, align 8
  %3 = alloca i32, align 4
  %4 = alloca ptr, align 8
  %5 = alloca i32, align 4
  store i32 %0, ptr %3, align 4
  call void @llvm.lifetime.start.p0(i64 8, ptr %4) #24
  %6 = load i32, ptr %3, align 4
  %7 = call ptr @find_protocol_by_id(i32 noundef %6)
  store ptr %7, ptr %4, align 8
  %8 = load ptr, ptr %4, align 8
  %9 = icmp eq ptr %8, null
  br i1 %9, label %10, label %11

10:                                               ; preds = %1
  store ptr @.str.110, ptr %2, align 8
  store i32 1, ptr %5, align 4
  br label %15

11:                                               ; preds = %1
  %12 = load ptr, ptr %4, align 8
  %13 = getelementptr inbounds nuw %struct._protocol, ptr %12, i32 0, i32 2
  %14 = load ptr, ptr %13, align 8
  store ptr %14, ptr %2, align 8
  store i32 1, ptr %5, align 4
  br label %15

15:                                               ; preds = %11, %10
  call void @llvm.lifetime.end.p0(i64 8, ptr %4) #24
  %16 = load ptr, ptr %2, align 8
  ret ptr %16
}

; Function Attrs: null_pointer_is_valid sspstrong uwtable
define void @proto_get_frame_protocols(ptr noundef %0, ptr noundef %1, ptr noundef %2, ptr noundef %3, ptr noundef %4, ptr noundef %5, ptr noundef %6, ptr noundef %7) #0 {
  %9 = alloca ptr, align 8
  %10 = alloca ptr, align 8
  %11 = alloca ptr, align 8
  %12 = alloca ptr, align 8
  %13 = alloca ptr, align 8
  %14 = alloca ptr, align 8
  %15 = alloca ptr, align 8
  %16 = alloca ptr, align 8
  %17 = alloca ptr, align 8
  %18 = alloca i32, align 4
  %19 = alloca ptr, align 8
  store ptr %0, ptr %9, align 8
  store ptr %1, ptr %10, align 8
  store ptr %2, ptr %11, align 8
  store ptr %3, ptr %12, align 8
  store ptr %4, ptr %13, align 8
  store ptr %5, ptr %14, align 8
  store ptr %6, ptr %15, align 8
  store ptr %7, ptr %16, align 8
  call void @llvm.lifetime.start.p0(i64 8, ptr %17) #24
  %20 = load ptr, ptr %9, align 8
  %21 = call ptr @wmem_list_head(ptr noundef %20)
  store ptr %21, ptr %17, align 8
  call void @llvm.lifetime.start.p0(i64 4, ptr %18) #24
  call void @llvm.lifetime.start.p0(i64 8, ptr %19) #24
  br label %22

22:                                               ; preds = %108, %8
  %23 = load ptr, ptr %17, align 8
  %24 = icmp ne ptr %23, null
  br i1 %24, label %25, label %111

25:                                               ; preds = %22
  %26 = load ptr, ptr %17, align 8
  %27 = call ptr @wmem_list_frame_data(ptr noundef %26)
  %28 = ptrtoint ptr %27 to i64
  %29 = trunc i64 %28 to i32
  store i32 %29, ptr %18, align 4
  %30 = load i32, ptr %18, align 4
  %31 = call ptr @proto_get_protocol_filter_name(i32 noundef %30)
  store ptr %31, ptr %19, align 8
  %32 = load ptr, ptr %10, align 8
  %33 = icmp ne ptr %32, null
  br i1 %33, label %34, label %44

34:                                               ; preds = %25
  %35 = load ptr, ptr %19, align 8
  %36 = call i32 @strcmp(ptr noundef %35, ptr noundef @.str.111) #29
  %37 = icmp ne i32 %36, 0
  br i1 %37, label %38, label %42

38:                                               ; preds = %34
  %39 = load ptr, ptr %19, align 8
  %40 = call i32 @strcmp(ptr noundef %39, ptr noundef @.str.112) #29
  %41 = icmp ne i32 %40, 0
  br i1 %41, label %44, label %42

42:                                               ; preds = %38, %34
  %43 = load ptr, ptr %10, align 8
  store i8 1, ptr %43, align 1
  br label %108

44:                                               ; preds = %38, %25
  %45 = load ptr, ptr %11, align 8
  %46 = icmp ne ptr %45, null
  br i1 %46, label %47, label %53

47:                                               ; preds = %44
  %48 = load ptr, ptr %19, align 8
  %49 = call i32 @strcmp(ptr noundef %48, ptr noundef @.str.113) #29
  %50 = icmp ne i32 %49, 0
  br i1 %50, label %53, label %51

51:                                               ; preds = %47
  %52 = load ptr, ptr %11, align 8
  store i8 1, ptr %52, align 1
  br label %107

53:                                               ; preds = %47, %44
  %54 = load ptr, ptr %12, align 8
  %55 = icmp ne ptr %54, null
  br i1 %55, label %56, label %62

56:                                               ; preds = %53
  %57 = load ptr, ptr %19, align 8
  %58 = call i32 @strcmp(ptr noundef %57, ptr noundef @.str.114) #29
  %59 = icmp ne i32 %58, 0
  br i1 %59, label %62, label %60

60:                                               ; preds = %56
  %61 = load ptr, ptr %12, align 8
  store i8 1, ptr %61, align 1
  br label %106

62:                                               ; preds = %56, %53
  %63 = load ptr, ptr %13, align 8
  %64 = icmp ne ptr %63, null
  br i1 %64, label %65, label %71

65:                                               ; preds = %62
  %66 = load ptr, ptr %19, align 8
  %67 = call i32 @strcmp(ptr noundef %66, ptr noundef @.str.115) #29
  %68 = icmp ne i32 %67, 0
  br i1 %68, label %71, label %69

69:                                               ; preds = %65
  %70 = load ptr, ptr %13, align 8
  store i8 1, ptr %70, align 1
  br label %105

71:                                               ; preds = %65, %62
  %72 = load ptr, ptr %14, align 8
  %73 = icmp ne ptr %72, null
  br i1 %73, label %74, label %80

74:                                               ; preds = %71
  %75 = load ptr, ptr %19, align 8
  %76 = call i32 @strcmp(ptr noundef %75, ptr noundef @.str.116) #29
  %77 = icmp ne i32 %76, 0
  br i1 %77, label %80, label %78

78:                                               ; preds = %74
  %79 = load ptr, ptr %14, align 8
  store i8 1, ptr %79, align 1
  br label %104

80:                                               ; preds = %74, %71
  %81 = load ptr, ptr %15, align 8
  %82 = icmp ne ptr %81, null
  br i1 %82, label %83, label %89

83:                                               ; preds = %80
  %84 = load ptr, ptr %19, align 8
  %85 = call i32 @strcmp(ptr noundef %84, ptr noundef @.str.117) #29
  %86 = icmp ne i32 %85, 0
  br i1 %86, label %89, label %87

87:                                               ; preds = %83
  %88 = load ptr, ptr %15, align 8
  store i8 1, ptr %88, align 1
  br label %103

89:                                               ; preds = %83, %80
  %90 = load ptr, ptr %16, align 8
  %91 = icmp ne ptr %90, null
  br i1 %91, label %92, label %102

92:                                               ; preds = %89
  %93 = load ptr, ptr %19, align 8
  %94 = call i32 @strcmp(ptr noundef %93, ptr noundef @.str.118) #29
  %95 = icmp ne i32 %94, 0
  br i1 %95, label %96, label %100

96:                                               ; preds = %92
  %97 = load ptr, ptr %19, align 8
  %98 = call i32 @strcmp(ptr noundef %97, ptr noundef @.str.119) #29
  %99 = icmp ne i32 %98, 0
  br i1 %99, label %102, label %100

100:                                              ; preds = %96, %92
  %101 = load ptr, ptr %16, align 8
  store i8 1, ptr %101, align 1
  br label %102

102:                                              ; preds = %100, %96, %89
  br label %103

103:                                              ; preds = %102, %87
  br label %104

104:                                              ; preds = %103, %78
  br label %105

105:                                              ; preds = %104, %69
  br label %106

106:                                              ; preds = %105, %60
  br label %107

107:                                              ; preds = %106, %51
  br label %108

108:                                              ; preds = %107, %42
  %109 = load ptr, ptr %17, align 8
  %110 = call ptr @wmem_list_frame_next(ptr noundef %109)
  store ptr %110, ptr %17, align 8
  br label %22, !llvm.loop !37

111:                                              ; preds = %22
  call void @llvm.lifetime.end.p0(i64 8, ptr %19) #24
  call void @llvm.lifetime.end.p0(i64 4, ptr %18) #24
  call void @llvm.lifetime.end.p0(i64 8, ptr %17) #24
  ret void
}