; Function Attrs: null_pointer_is_valid sspstrong uwtable
define void @proto_get_frame_protocols(ptr noundef %0, ptr noundef writeonly captures(address_is_null) %1, ptr noundef writeonly captures(address_is_null) %2, ptr noundef writeonly captures(address_is_null) %3, ptr noundef writeonly captures(address_is_null) %4, ptr noundef writeonly captures(address_is_null) %5, ptr noundef writeonly captures(address_is_null) %6, ptr noundef writeonly captures(address_is_null) %7) local_unnamed_addr #0 {
  %9 = tail call ptr @wmem_list_head(ptr noundef %0)
  %.not50 = icmp eq ptr %9, null
  br i1 %.not50, label %._crit_edge, label %.lr.ph

.lr.ph:                                           ; preds = %8
  %.not34 = icmp eq ptr %1, null
  %.not37 = icmp eq ptr %2, null
  %.not39 = icmp eq ptr %3, null
  %.not41 = icmp eq ptr %4, null
  %.not43 = icmp eq ptr %5, null
  %.not45 = icmp eq ptr %6, null
  %.not47 = icmp eq ptr %7, null
  br label %10

10:                                               ; preds = %.lr.ph, %46
  %.051 = phi ptr [ %9, %.lr.ph ], [ %47, %46 ]
  %11 = tail call ptr @wmem_list_frame_data(ptr noundef nonnull %.051)
  %12 = ptrtoint ptr %11 to i64
  %13 = trunc i64 %12 to i32
  %14 = tail call ptr @find_protocol_by_id(i32 noundef %13)
  %15 = icmp eq ptr %14, null
  br i1 %15, label %proto_get_protocol_filter_name.exit, label %16

16:                                               ; preds = %10
  %17 = getelementptr inbounds nuw i8, ptr %14, i64 16
  %18 = load ptr, ptr %17, align 8
  br label %proto_get_protocol_filter_name.exit

proto_get_protocol_filter_name.exit:              ; preds = %10, %16
  %.0.i = phi ptr [ %18, %16 ], [ @.str.110, %10 ]
  br i1 %.not34, label %26, label %sub_0

sub_0:                                            ; preds = %proto_get_protocol_filter_name.exit
  %19 = load i8, ptr %.0.i, align 1
  %.not52 = icmp eq i8 %19, 105
  br i1 %.not52, label %sub_1, label %.tail.thread

sub_1:                                            ; preds = %sub_0
  %20 = getelementptr inbounds nuw i8, ptr %.0.i, i64 1
  %21 = load i8, ptr %20, align 1
  %.not53 = icmp eq i8 %21, 112
  br i1 %.not53, label %.tail, label %.tail.thread

.tail:                                            ; preds = %sub_1
  %22 = getelementptr inbounds nuw i8, ptr %.0.i, i64 2
  %23 = load i8, ptr %22, align 1
  %24 = icmp eq i8 %23, 0
  br i1 %24, label %.sink.split, label %.tail.thread

.tail.thread:                                     ; preds = %sub_1, %sub_0, %.tail
  %25 = tail call i32 @strcmp(ptr noundef %.0.i, ptr noundef nonnull dereferenceable(5) @.str.112) #41
  %.not36 = icmp eq i32 %25, 0
  br i1 %.not36, label %.sink.split, label %26

26:                                               ; preds = %.tail.thread, %proto_get_protocol_filter_name.exit
  br i1 %.not37, label %29, label %27

27:                                               ; preds = %26
  %28 = tail call i32 @strcmp(ptr noundef %.0.i, ptr noundef nonnull dereferenceable(4) @.str.113) #41
  %.not38 = icmp eq i32 %28, 0
  br i1 %.not38, label %.sink.split, label %29

29:                                               ; preds = %27, %26
  br i1 %.not39, label %32, label %30

30:                                               ; preds = %29
  %31 = tail call i32 @strcmp(ptr noundef %.0.i, ptr noundef nonnull dereferenceable(4) @.str.114) #41
  %.not40 = icmp eq i32 %31, 0
  br i1 %.not40, label %.sink.split, label %32

32:                                               ; preds = %30, %29
  br i1 %.not41, label %35, label %33

33:                                               ; preds = %32
  %34 = tail call i32 @strcmp(ptr noundef %.0.i, ptr noundef nonnull dereferenceable(5) @.str.115) #41
  %.not42 = icmp eq i32 %34, 0
  br i1 %.not42, label %.sink.split, label %35

35:                                               ; preds = %33, %32
  br i1 %.not43, label %38, label %36

36:                                               ; preds = %35
  %37 = tail call i32 @strcmp(ptr noundef %.0.i, ptr noundef nonnull dereferenceable(4) @.str.116) #41
  %.not44 = icmp eq i32 %37, 0
  br i1 %.not44, label %.sink.split, label %38

38:                                               ; preds = %36, %35
  br i1 %.not45, label %41, label %39

39:                                               ; preds = %38
  %40 = tail call i32 @strcmp(ptr noundef %.0.i, ptr noundef nonnull dereferenceable(4) @.str.117) #41
  %.not46 = icmp eq i32 %40, 0
  br i1 %.not46, label %.sink.split, label %41

41:                                               ; preds = %39, %38
  br i1 %.not47, label %46, label %42

42:                                               ; preds = %41
  %43 = tail call i32 @strcmp(ptr noundef %.0.i, ptr noundef nonnull dereferenceable(8) @.str.118) #41
  %.not48 = icmp eq i32 %43, 0
  br i1 %.not48, label %.sink.split, label %44

44:                                               ; preds = %42
  %45 = tail call i32 @strcmp(ptr noundef %.0.i, ptr noundef nonnull dereferenceable(7) @.str.119) #41
  %.not49 = icmp eq i32 %45, 0
  br i1 %.not49, label %.sink.split, label %46

.sink.split:                                      ; preds = %42, %44, %39, %36, %33, %30, %27, %.tail, %.tail.thread
  %.sink = phi ptr [ %1, %.tail.thread ], [ %1, %.tail ], [ %2, %27 ], [ %3, %30 ], [ %4, %33 ], [ %5, %36 ], [ %6, %39 ], [ %7, %44 ], [ %7, %42 ]
  store i8 1, ptr %.sink, align 1
  br label %46

46:                                               ; preds = %.sink.split, %44, %41
  %47 = tail call ptr @wmem_list_frame_next(ptr noundef nonnull %.051)
  %.not = icmp eq ptr %47, null
  br i1 %.not, label %._crit_edge, label %10, !llvm.loop !45

._crit_edge:                                      ; preds = %46, %8
  ret void
}